; Function Attrs: mustprogress nofree nounwind uwtable
define hidden noundef zeroext i1 @_ZNK6cineon8InStream9EndOfFileEv(ptr nocapture noundef nonnull readonly align 8 dereferenceable(16) %this) unnamed_addr #8 align 2 {
entry:
  %fp = getelementptr inbounds i8, ptr %this, i64 8
  %0 = load ptr, ptr %fp, align 8
  %cmp = icmp eq ptr %0, null
  br i1 %cmp, label %return, label %if.end

if.end:                                           ; preds = %entry
  %call = tail call i32 @feof(ptr noundef nonnull %0) #13
  %tobool = icmp ne i32 %call, 0
  br label %return

return:                                           ; preds = %entry, %if.end
  %retval.0 = phi i1 [ %tobool, %if.end ], [ true, %entry ]
  ret i1 %retval.0
}